; Function Attrs: mustprogress nounwind uwtable
define hidden void @_ZN15G1CollectedHeap34prepare_region_for_full_compactionEP12G1HeapRegion(ptr nocapture noundef nonnull align 8 dereferenceable(1488) %0, ptr noundef %1) local_unnamed_addr #0 align 2 {
  %3 = getelementptr inbounds i8, ptr %1, i64 52
  %4 = load volatile i32, ptr %3, align 4
  %5 = and i32 %4, 4
  %.not = icmp eq i32 %5, 0
  br i1 %.not, label %15, label %6

6:                                                ; preds = %2
  %7 = getelementptr inbounds i8, ptr %0, i64 208
  %8 = load ptr, ptr %7, align 8
  %.not.i.i = icmp eq ptr %8, null
  br i1 %.not.i.i, label %_ZN19G1HeapRegionSetBase6removeEP12G1HeapRegion.exit, label %9

9:                                                ; preds = %6
  %10 = load ptr, ptr %8, align 8
  %11 = load ptr, ptr %10, align 8
  tail call void %11(ptr noundef nonnull align 8 dereferenceable(8) %8) #23
  br label %_ZN19G1HeapRegionSetBase6removeEP12G1HeapRegion.exit

_ZN19G1HeapRegionSetBase6removeEP12G1HeapRegion.exit: ; preds = %6, %9
  %12 = getelementptr inbounds i8, ptr %0, i64 216
  %13 = load i32, ptr %12, align 8
  %14 = add i32 %13, -1
  store i32 %14, ptr %12, align 8
  br label %_ZN12G1HeapRegion25uninstall_surv_rate_groupEv.exit

15:                                               ; preds = %2
  %16 = load volatile i32, ptr %3, align 4
  %17 = and i32 %16, 8
  %.not9 = icmp eq i32 %17, 0
  br i1 %.not9, label %27, label %18

18:                                               ; preds = %15
  %19 = getelementptr inbounds i8, ptr %0, i64 168
  %20 = load ptr, ptr %19, align 8
  %.not.i.i7 = icmp eq ptr %20, null
  br i1 %.not.i.i7, label %_ZN19G1HeapRegionSetBase6removeEP12G1HeapRegion.exit8, label %21

21:                                               ; preds = %18
  %22 = load ptr, ptr %20, align 8
  %23 = load ptr, ptr %22, align 8
  tail call void %23(ptr noundef nonnull align 8 dereferenceable(8) %20) #23
  br label %_ZN19G1HeapRegionSetBase6removeEP12G1HeapRegion.exit8

_ZN19G1HeapRegionSetBase6removeEP12G1HeapRegion.exit8: ; preds = %18, %21
  %24 = getelementptr inbounds i8, ptr %0, i64 176
  %25 = load i32, ptr %24, align 8
  %26 = add i32 %25, -1
  store i32 %26, ptr %24, align 8
  br label %_ZN12G1HeapRegion25uninstall_surv_rate_groupEv.exit

27:                                               ; preds = %15
  %28 = load volatile i32, ptr %3, align 4
  %29 = and i32 %28, 2
  %.not10 = icmp eq i32 %29, 0
  br i1 %.not10, label %_ZN12G1HeapRegion25uninstall_surv_rate_groupEv.exit, label %30

30:                                               ; preds = %27
  %31 = getelementptr inbounds i8, ptr %1, i64 112
  %32 = load ptr, ptr %31, align 8
  %.not.i = icmp eq ptr %32, null
  br i1 %.not.i, label %_ZN12G1HeapRegion25uninstall_surv_rate_groupEv.exit, label %33

33:                                               ; preds = %30
  store ptr null, ptr %31, align 8
  %34 = getelementptr inbounds i8, ptr %1, i64 120
  store i32 -1, ptr %34, align 8
  br label %_ZN12G1HeapRegion25uninstall_surv_rate_groupEv.exit

_ZN12G1HeapRegion25uninstall_surv_rate_groupEv.exit: ; preds = %33, %30, %_ZN19G1HeapRegionSetBase6removeEP12G1HeapRegion.exit8, %27, %_ZN19G1HeapRegionSetBase6removeEP12G1HeapRegion.exit
  ret void
}